target datalayout = "e-m:e-p270:32:32-p271:32:32-p272:64:64-i64:64-i128:128-f80:128-n8:16:32:64-S128"
target triple = "x86_64-pc-linux-gnu"

%struct.ident_t = type { i32, i32, i32, i32, ptr }
%"struct.faiss::IndexIVF" = type <{ %"struct.faiss::Index.base", [4 x i8], %"struct.faiss::IndexIVFInterface", ptr, i8, [7 x i8], i64, i32, i32, %"struct.faiss::DirectMap", i8, [7 x i8] }>
%"struct.faiss::Index.base" = type <{ ptr, i32, [4 x i8], i64, i8, i8, [2 x i8], i32, float }>
%"struct.faiss::IndexIVFInterface" = type { ptr, %"struct.faiss::Level1Quantizer", i64, i64 }
%"struct.faiss::Level1Quantizer" = type { ptr, i64, i8, i8, [6 x i8], %"struct.faiss::ClusteringParameters", ptr }
%"struct.faiss::ClusteringParameters" = type <{ i32, i32, i8, i8, i8, i8, i8, [3 x i8], i32, i32, i32, [4 x i8], i64, i8, i8, [6 x i8] }>
%"struct.faiss::DirectMap" = type { i32, %"class.std::vector", %"class.std::unordered_map" }
%"class.std::vector" = type { %"struct.std::_Vector_base" }
%"struct.std::_Vector_base" = type { %"struct.std::_Vector_base<long, std::allocator<long>>::_Vector_impl" }
%"struct.std::_Vector_base<long, std::allocator<long>>::_Vector_impl" = type { %"struct.std::_Vector_base<long, std::allocator<long>>::_Vector_impl_data" }
%"struct.std::_Vector_base<long, std::allocator<long>>::_Vector_impl_data" = type { ptr, ptr, ptr }
%"class.std::unordered_map" = type { %"class.std::_Hashtable" }
%"class.std::_Hashtable" = type { ptr, i64, %"struct.std::__detail::_Hash_node_base", i64, %"struct.std::__detail::_Prime_rehash_policy", ptr }
%"struct.std::__detail::_Hash_node_base" = type { ptr }
%"struct.std::__detail::_Prime_rehash_policy" = type { float, i64 }
%"struct.faiss::Index" = type <{ ptr, i32, [4 x i8], i64, i8, i8, [2 x i8], i32, float, [4 x i8] }>

@.gomp_critical_user_.reduction.var = common global [8 x i32] zeroinitializer, align 8
@1 = private unnamed_addr constant %struct.ident_t { i32 0, i32 18, i32 0, i32 22, ptr @0 }, align 8

; Function Attrs: alwaysinline norecurse nounwind uwtable
define internal void @_ZN5faiss12IndexIVFFlat8add_coreElPKfPKlS4_Pv.omp_outlined(ptr noalias noundef %0, ptr noalias noundef %1, ptr noundef nonnull align 8 dereferenceable(8) %2, ptr noundef nonnull align 8 dereferenceable(8) %3, ptr noundef nonnull align 8 dereferenceable(8) %4, ptr noundef %5, ptr noundef nonnull align 8 dereferenceable(8) %6, ptr noundef nonnull align 8 dereferenceable(8) %7, ptr noundef nonnull align 8 dereferenceable(64) %8, ptr noundef nonnull align 8 dereferenceable(8) %9) #8 personality ptr @__gxx_personality_v0 {
  %11 = alloca ptr, align 8
  %12 = alloca ptr, align 8
  %13 = alloca ptr, align 8
  %14 = alloca ptr, align 8
  %15 = alloca ptr, align 8
  %16 = alloca ptr, align 8
  %17 = alloca ptr, align 8
  %18 = alloca ptr, align 8
  %19 = alloca ptr, align 8
  %20 = alloca ptr, align 8
  %21 = alloca i64, align 8
  %22 = alloca i32, align 4
  %23 = alloca i32, align 4
  %24 = alloca i64, align 8
  %25 = alloca i64, align 8
  %26 = alloca i64, align 8
  %27 = alloca ptr, align 8
  %28 = alloca i64, align 8
  %29 = alloca [1 x ptr], align 8
  store ptr %0, ptr %11, align 8, !tbaa !93
  store ptr %1, ptr %12, align 8, !tbaa !93
  store ptr %2, ptr %13, align 8, !tbaa !43
  store ptr %3, ptr %14, align 8, !tbaa !95
  store ptr %4, ptr %15, align 8, !tbaa !95
  store ptr %5, ptr %16, align 8, !tbaa !4
  store ptr %6, ptr %17, align 8, !tbaa !97
  store ptr %7, ptr %18, align 8, !tbaa !44
  store ptr %8, ptr %19, align 8, !tbaa !99
  store ptr %9, ptr %20, align 8, !tbaa !43
  %30 = load ptr, ptr %13, align 8, !tbaa !43
  %31 = load ptr, ptr %14, align 8, !tbaa !95
  %32 = load ptr, ptr %15, align 8, !tbaa !95
  %33 = load ptr, ptr %16, align 8, !tbaa !4
  %34 = load ptr, ptr %17, align 8, !tbaa !97
  %35 = load ptr, ptr %18, align 8, !tbaa !44
  %36 = load ptr, ptr %19, align 8, !tbaa !99
  %37 = load ptr, ptr %20, align 8, !tbaa !43
  call void @llvm.lifetime.start.p0(i64 8, ptr %21) #12
  store i64 0, ptr %21, align 8, !tbaa !9
  call void @llvm.lifetime.start.p0(i64 4, ptr %22) #12
  %38 = invoke i32 @omp_get_num_threads()
          to label %39 unwind label %128

39:                                               ; preds = %10
  store i32 %38, ptr %22, align 4, !tbaa !48
  call void @llvm.lifetime.start.p0(i64 4, ptr %23) #12
  %40 = invoke i32 @omp_get_thread_num()
          to label %41 unwind label %128

41:                                               ; preds = %39
  store i32 %40, ptr %23, align 4, !tbaa !48
  call void @llvm.lifetime.start.p0(i64 8, ptr %24) #12
  store i64 0, ptr %24, align 8, !tbaa !9
  br label %42

42:                                               ; preds = %112, %41
  %43 = load i64, ptr %24, align 8, !tbaa !9
  %44 = load i64, ptr %30, align 8, !tbaa !9
  %45 = icmp ult i64 %43, %44
  br i1 %45, label %47, label %46

46:                                               ; preds = %42
  call void @llvm.lifetime.end.p0(i64 8, ptr %24) #12
  br label %115

47:                                               ; preds = %42
  call void @llvm.lifetime.start.p0(i64 8, ptr %25) #12
  %48 = load ptr, ptr %31, align 8, !tbaa !43
  %49 = load i64, ptr %24, align 8, !tbaa !9
  %50 = getelementptr inbounds nuw i64, ptr %48, i64 %49
  %51 = load i64, ptr %50, align 8, !tbaa !9
  store i64 %51, ptr %25, align 8, !tbaa !9
  %52 = load i64, ptr %25, align 8, !tbaa !9
  %53 = icmp sge i64 %52, 0
  br i1 %53, label %54, label %101

54:                                               ; preds = %47
  %55 = load i64, ptr %25, align 8, !tbaa !9
  %56 = load i32, ptr %22, align 4, !tbaa !48
  %57 = sext i32 %56 to i64
  %58 = srem i64 %55, %57
  %59 = load i32, ptr %23, align 4, !tbaa !48
  %60 = sext i32 %59 to i64
  %61 = icmp eq i64 %58, %60
  br i1 %61, label %62, label %101

62:                                               ; preds = %54
  call void @llvm.lifetime.start.p0(i64 8, ptr %26) #12
  %63 = load ptr, ptr %32, align 8, !tbaa !43
  %64 = icmp ne ptr %63, null
  br i1 %64, label %65, label %70

65:                                               ; preds = %62
  %66 = load ptr, ptr %32, align 8, !tbaa !43
  %67 = load i64, ptr %24, align 8, !tbaa !9
  %68 = getelementptr inbounds nuw i64, ptr %66, i64 %67
  %69 = load i64, ptr %68, align 8, !tbaa !9
  br label %75

70:                                               ; preds = %62
  %71 = getelementptr inbounds nuw %"struct.faiss::Index", ptr %33, i32 0, i32 3
  %72 = load i64, ptr %71, align 8, !tbaa !51
  %73 = load i64, ptr %24, align 8, !tbaa !9
  %74 = add i64 %72, %73
  br label %75

75:                                               ; preds = %70, %65
  %76 = phi i64 [ %69, %65 ], [ %74, %70 ]
  store i64 %76, ptr %26, align 8, !tbaa !9
  call void @llvm.lifetime.start.p0(i64 8, ptr %27) #12
  %77 = load ptr, ptr %34, align 8, !tbaa !13
  %78 = load i64, ptr %24, align 8, !tbaa !9
  %79 = getelementptr inbounds nuw %"struct.faiss::Index", ptr %33, i32 0, i32 1
  %80 = load i32, ptr %79, align 8, !tbaa !40
  %81 = sext i32 %80 to i64
  %82 = mul i64 %78, %81
  %83 = getelementptr inbounds nuw float, ptr %77, i64 %82
  store ptr %83, ptr %27, align 8, !tbaa !13
  call void @llvm.lifetime.start.p0(i64 8, ptr %28) #12
  %84 = getelementptr inbounds nuw %"struct.faiss::IndexIVF", ptr %33, i32 0, i32 3
  %85 = load ptr, ptr %84, align 8, !tbaa !56
  %86 = load i64, ptr %25, align 8, !tbaa !9
  %87 = load i64, ptr %26, align 8, !tbaa !9
  %88 = load ptr, ptr %27, align 8, !tbaa !13
  %89 = load ptr, ptr %35, align 8, !tbaa !44
  %90 = load ptr, ptr %85, align 8, !tbaa !57
  %91 = getelementptr inbounds ptr, ptr %90, i64 12
  %92 = load ptr, ptr %91, align 8
  %93 = invoke noundef i64 %92(ptr noundef nonnull align 8 dereferenceable(25) %85, i64 noundef %86, i64 noundef %87, ptr noundef %88, ptr noundef %89)
          to label %94 unwind label %128

94:                                               ; preds = %75
  store i64 %93, ptr %28, align 8, !tbaa !9
  %95 = load i64, ptr %24, align 8, !tbaa !9
  %96 = load i64, ptr %25, align 8, !tbaa !9
  %97 = load i64, ptr %28, align 8, !tbaa !9
  invoke void @_ZN5faiss12DirectMapAdd3addEmlm(ptr noundef nonnull align 8 dereferenceable(64) %36, i64 noundef %95, i64 noundef %96, i64 noundef %97)
          to label %98 unwind label %128

98:                                               ; preds = %94
  %99 = load i64, ptr %21, align 8, !tbaa !9
  %100 = add nsw i64 %99, 1
  store i64 %100, ptr %21, align 8, !tbaa !9
  call void @llvm.lifetime.end.p0(i64 8, ptr %28) #12
  call void @llvm.lifetime.end.p0(i64 8, ptr %27) #12
  call void @llvm.lifetime.end.p0(i64 8, ptr %26) #12
  br label %111

101:                                              ; preds = %54, %47
  %102 = load i32, ptr %23, align 4, !tbaa !48
  %103 = icmp eq i32 %102, 0
  br i1 %103, label %104, label %110

104:                                              ; preds = %101
  %105 = load i64, ptr %25, align 8, !tbaa !9
  %106 = icmp eq i64 %105, -1
  br i1 %106, label %107, label %110

107:                                              ; preds = %104
  %108 = load i64, ptr %24, align 8, !tbaa !9
  invoke void @_ZN5faiss12DirectMapAdd3addEmlm(ptr noundef nonnull align 8 dereferenceable(64) %36, i64 noundef %108, i64 noundef -1, i64 noundef 0)
          to label %109 unwind label %128

109:                                              ; preds = %107
  br label %110

110:                                              ; preds = %109, %104, %101
  br label %111

111:                                              ; preds = %110, %98
  call void @llvm.lifetime.end.p0(i64 8, ptr %25) #12
  br label %112

112:                                              ; preds = %111
  %113 = load i64, ptr %24, align 8, !tbaa !9
  %114 = add i64 %113, 1
  store i64 %114, ptr %24, align 8, !tbaa !9
  br label %42, !llvm.loop !101

115:                                              ; preds = %46
  call void @llvm.lifetime.end.p0(i64 4, ptr %23) #12
  call void @llvm.lifetime.end.p0(i64 4, ptr %22) #12
  %116 = getelementptr inbounds [1 x ptr], ptr %29, i64 0, i64 0
  store ptr %21, ptr %116, align 8
  %117 = load ptr, ptr %11, align 8
  %118 = load i32, ptr %117, align 4, !tbaa !48
  %119 = call i32 @__kmpc_reduce_nowait(ptr @1, i32 %118, i32 1, i64 8, ptr %29, ptr @_ZN5faiss12IndexIVFFlat8add_coreElPKfPKlS4_Pv.omp_outlined.omp.reduction.reduction_func, ptr @.gomp_critical_user_.reduction.var)
  switch i32 %119, label %127 [
    i32 1, label %120
    i32 2, label %124
  ]

120:                                              ; preds = %115
  %121 = load i64, ptr %37, align 8, !tbaa !9
  %122 = load i64, ptr %21, align 8, !tbaa !9
  %123 = add nsw i64 %121, %122
  store i64 %123, ptr %37, align 8, !tbaa !9
  call void @__kmpc_end_reduce_nowait(ptr @1, i32 %118, ptr @.gomp_critical_user_.reduction.var)
  br label %127

124:                                              ; preds = %115
  %125 = load i64, ptr %21, align 8, !tbaa !9
  %126 = atomicrmw add ptr %37, i64 %125 monotonic, align 8
  br label %127

127:                                              ; preds = %124, %120, %115
  call void @llvm.lifetime.end.p0(i64 8, ptr %21) #12
  ret void

128:                                              ; preds = %107, %94, %75, %39, %10
  %129 = landingpad { ptr, i32 }
          catch ptr null
  %130 = extractvalue { ptr, i32 } %129, 0
  call void @__clang_call_terminate(ptr %130) #27
  unreachable
}