; Function Attrs: alwaysinline norecurse nounwind uwtable
define internal void @_ZN5faiss12IndexIVFFlat8add_coreElPKfPKlS4_Pv.omp_outlined(ptr noalias noundef readonly captures(none) %0, ptr noalias readnone captures(none) %1, ptr noundef nonnull readonly align 8 captures(none) dereferenceable(8) %2, ptr noundef nonnull readonly align 8 captures(none) dereferenceable(8) %3, ptr noundef nonnull readonly align 8 captures(none) dereferenceable(8) %4, ptr noundef readonly captures(none) %5, ptr noundef nonnull readonly align 8 captures(none) dereferenceable(8) %6, ptr noundef nonnull readonly align 8 captures(none) dereferenceable(8) %7, ptr noundef nonnull align 8 dereferenceable(64) %8, ptr noundef nonnull align 8 captures(none) dereferenceable(8) %9) #10 personality ptr @__gxx_personality_v0 {
  %11 = alloca i64, align 8
  %12 = alloca [1 x ptr], align 8
  call void @llvm.lifetime.start.p0(i64 8, ptr nonnull %11) #15
  store i64 0, ptr %11, align 8, !tbaa !36
  %13 = tail call i32 @omp_get_num_threads()
  %14 = tail call i32 @omp_get_thread_num()
  %15 = load i64, ptr %2, align 8, !tbaa !36
  %.not32 = icmp eq i64 %15, 0
  br i1 %.not32, label %._crit_edge, label %.lr.ph

.lr.ph:                                           ; preds = %10
  %.fr33 = freeze i32 %14
  %16 = icmp eq i32 %.fr33, 0
  %17 = sext i32 %13 to i64
  %18 = sext i32 %.fr33 to i64
  %19 = getelementptr inbounds nuw i8, ptr %5, i64 16
  %20 = getelementptr inbounds nuw i8, ptr %5, i64 8
  %21 = getelementptr inbounds nuw i8, ptr %5, i64 144
  br i1 %16, label %.lr.ph.split, label %.lr.ph.split.us

.lr.ph.split.us:                                  ; preds = %.lr.ph, %.thread.us
  %22 = phi i64 [ %55, %.thread.us ], [ %15, %.lr.ph ]
  %23 = phi i64 [ %56, %.thread.us ], [ 0, %.lr.ph ]
  %.031.us = phi i64 [ %57, %.thread.us ], [ 0, %.lr.ph ]
  %24 = load ptr, ptr %3, align 8, !tbaa !39
  %25 = getelementptr inbounds nuw i64, ptr %24, i64 %.031.us
  %26 = load i64, ptr %25, align 8, !tbaa !36
  %27 = icmp sgt i64 %26, -1
  br i1 %27, label %28, label %.thread.us

28:                                               ; preds = %.lr.ph.split.us
  %29 = srem i64 %26, %17
  %30 = icmp eq i64 %29, %18
  br i1 %30, label %31, label %.thread.us

31:                                               ; preds = %28
  %32 = load ptr, ptr %4, align 8, !tbaa !39
  %.not.us = icmp eq ptr %32, null
  br i1 %.not.us, label %36, label %33

33:                                               ; preds = %31
  %34 = getelementptr inbounds nuw i64, ptr %32, i64 %.031.us
  %35 = load i64, ptr %34, align 8, !tbaa !36
  br label %39

36:                                               ; preds = %31
  %37 = load i64, ptr %19, align 8, !tbaa !53
  %38 = add i64 %37, %.031.us
  br label %39

39:                                               ; preds = %36, %33
  %40 = phi i64 [ %35, %33 ], [ %38, %36 ]
  %41 = load ptr, ptr %6, align 8, !tbaa !37
  %42 = load i32, ptr %20, align 8, !tbaa !33
  %43 = sext i32 %42 to i64
  %44 = mul i64 %.031.us, %43
  %45 = getelementptr inbounds nuw float, ptr %41, i64 %44
  %46 = load ptr, ptr %21, align 8, !tbaa !65
  %47 = load ptr, ptr %7, align 8, !tbaa !40
  %48 = load ptr, ptr %46, align 8, !tbaa !62
  %49 = getelementptr inbounds nuw i8, ptr %48, i64 96
  %50 = load ptr, ptr %49, align 8
  %51 = invoke noundef i64 %50(ptr noundef nonnull align 8 dereferenceable(25) %46, i64 noundef %26, i64 noundef %40, ptr noundef %45, ptr noundef %47)
          to label %52 unwind label %.split.us

52:                                               ; preds = %39
  invoke void @_ZN5faiss12DirectMapAdd3addEmlm(ptr noundef nonnull align 8 dereferenceable(64) %8, i64 noundef %.031.us, i64 noundef %26, i64 noundef %51)
          to label %53 unwind label %.split.us

53:                                               ; preds = %52
  %54 = add nsw i64 %23, 1
  store i64 %54, ptr %11, align 8, !tbaa !36
  %.pre = load i64, ptr %2, align 8, !tbaa !36
  br label %.thread.us

.thread.us:                                       ; preds = %.lr.ph.split.us, %53, %28
  %55 = phi i64 [ %22, %.lr.ph.split.us ], [ %.pre, %53 ], [ %22, %28 ]
  %56 = phi i64 [ %23, %.lr.ph.split.us ], [ %54, %53 ], [ %23, %28 ]
  %57 = add nuw i64 %.031.us, 1
  %58 = icmp ult i64 %57, %55
  br i1 %58, label %.lr.ph.split.us, label %._crit_edge, !llvm.loop !120

.split.us:                                        ; preds = %52, %39
  %59 = landingpad { ptr, i32 }
          catch ptr null
  br label %110

._crit_edge:                                      ; preds = %.thread.us, %.thread, %10
  store ptr %11, ptr %12, align 8
  %60 = load i32, ptr %0, align 4, !tbaa !121
  %61 = call i32 @__kmpc_reduce_nowait(ptr nonnull @1, i32 %60, i32 1, i64 8, ptr nonnull %12, ptr nonnull @_ZN5faiss12IndexIVFFlat8add_coreElPKfPKlS4_Pv.omp_outlined.omp.reduction.reduction_func, ptr nonnull @.gomp_critical_user_.reduction.var)
  switch i32 %61, label %108 [
    i32 1, label %101
    i32 2, label %105
  ]

.lr.ph.split:                                     ; preds = %.lr.ph, %.thread
  %62 = phi i64 [ %97, %.thread ], [ 0, %.lr.ph ]
  %.031 = phi i64 [ %98, %.thread ], [ 0, %.lr.ph ]
  %63 = load ptr, ptr %3, align 8, !tbaa !39
  %64 = getelementptr inbounds nuw i64, ptr %63, i64 %.031
  %65 = load i64, ptr %64, align 8, !tbaa !36
  %66 = icmp sgt i64 %65, -1
  br i1 %66, label %67, label %94

67:                                               ; preds = %.lr.ph.split
  %68 = srem i64 %65, %17
  %69 = icmp eq i64 %68, %18
  br i1 %69, label %70, label %.thread

70:                                               ; preds = %67
  %71 = load ptr, ptr %4, align 8, !tbaa !39
  %.not = icmp eq ptr %71, null
  br i1 %.not, label %75, label %72

72:                                               ; preds = %70
  %73 = getelementptr inbounds nuw i64, ptr %71, i64 %.031
  %74 = load i64, ptr %73, align 8, !tbaa !36
  br label %78

75:                                               ; preds = %70
  %76 = load i64, ptr %19, align 8, !tbaa !53
  %77 = add i64 %76, %.031
  br label %78

78:                                               ; preds = %75, %72
  %79 = phi i64 [ %74, %72 ], [ %77, %75 ]
  %80 = load ptr, ptr %6, align 8, !tbaa !37
  %81 = load i32, ptr %20, align 8, !tbaa !33
  %82 = sext i32 %81 to i64
  %83 = mul i64 %.031, %82
  %84 = getelementptr inbounds nuw float, ptr %80, i64 %83
  %85 = load ptr, ptr %21, align 8, !tbaa !65
  %86 = load ptr, ptr %7, align 8, !tbaa !40
  %87 = load ptr, ptr %85, align 8, !tbaa !62
  %88 = getelementptr inbounds nuw i8, ptr %87, i64 96
  %89 = load ptr, ptr %88, align 8
  %90 = invoke noundef i64 %89(ptr noundef nonnull align 8 dereferenceable(25) %85, i64 noundef %65, i64 noundef %79, ptr noundef %84, ptr noundef %86)
          to label %91 unwind label %.split

91:                                               ; preds = %78
  invoke void @_ZN5faiss12DirectMapAdd3addEmlm(ptr noundef nonnull align 8 dereferenceable(64) %8, i64 noundef %.031, i64 noundef %65, i64 noundef %90)
          to label %92 unwind label %.split

92:                                               ; preds = %91
  %93 = add nsw i64 %62, 1
  store i64 %93, ptr %11, align 8, !tbaa !36
  br label %.thread

94:                                               ; preds = %.lr.ph.split
  %95 = icmp eq i64 %65, -1
  br i1 %95, label %96, label %.thread

96:                                               ; preds = %94
  invoke void @_ZN5faiss12DirectMapAdd3addEmlm(ptr noundef nonnull align 8 dereferenceable(64) %8, i64 noundef %.031, i64 noundef -1, i64 noundef 0)
          to label %.thread unwind label %.split

.thread:                                          ; preds = %67, %94, %96, %92
  %97 = phi i64 [ %62, %67 ], [ %62, %94 ], [ %62, %96 ], [ %93, %92 ]
  %98 = add nuw i64 %.031, 1
  %99 = load i64, ptr %2, align 8, !tbaa !36
  %100 = icmp ult i64 %98, %99
  br i1 %100, label %.lr.ph.split, label %._crit_edge, !llvm.loop !120

101:                                              ; preds = %._crit_edge
  %102 = load i64, ptr %9, align 8, !tbaa !36
  %103 = load i64, ptr %11, align 8, !tbaa !36
  %104 = add nsw i64 %103, %102
  store i64 %104, ptr %9, align 8, !tbaa !36
  call void @__kmpc_end_reduce_nowait(ptr nonnull @1, i32 %60, ptr nonnull @.gomp_critical_user_.reduction.var)
  br label %108

105:                                              ; preds = %._crit_edge
  %106 = load i64, ptr %11, align 8, !tbaa !36
  %107 = atomicrmw add ptr %9, i64 %106 monotonic, align 8
  br label %108

108:                                              ; preds = %105, %101, %._crit_edge
  call void @llvm.lifetime.end.p0(i64 8, ptr nonnull %11) #15
  ret void

.split:                                           ; preds = %96, %91, %78
  %109 = landingpad { ptr, i32 }
          catch ptr null
  br label %110

110:                                              ; preds = %.split.us, %.split
  %.us-phi = phi { ptr, i32 } [ %109, %.split ], [ %59, %.split.us ]
  %111 = extractvalue { ptr, i32 } %.us-phi, 0
  tail call void @__clang_call_terminate(ptr %111) #30
  unreachable
}